target datalayout = "e-m:e-p270:32:32-p271:32:32-p272:64:64-i64:64-i128:128-f80:128-n8:16:32:64-S128"
target triple = "x86_64-pc-linux-gnu"

%union.pthread_cond_t = type { %struct.__pthread_cond_s }
%struct.__pthread_cond_s = type { %union.__atomic_wide_counter, %union.__atomic_wide_counter, [2 x i32], [2 x i32], i32, i32, [2 x i32] }
%union.__atomic_wide_counter = type { i64 }
%union.pthread_mutex_t = type { %struct.__pthread_mutex_s }
%struct.__pthread_mutex_s = type { i32, i32, i32, i32, i32, i16, i16, %struct.__pthread_internal_list }
%struct.__pthread_internal_list = type { ptr, ptr }
%struct.stepd_step_rec_t = type { ptr, ptr, i32, %union.pthread_cond_t, %union.pthread_mutex_t, %struct.slurm_step_id_msg, i32, i32, i32, i32, i32, i32, ptr, ptr, i32, i32, ptr, i32, i32, i32, i32, i32, ptr, ptr, ptr, ptr, i32, i32, i64, i64, i16, i32, ptr, ptr, ptr, i32, ptr, i32, ptr, i32, ptr, i16, i32, i32, i32, ptr, i32, ptr, ptr, ptr, ptr, i32, i32, ptr, ptr, i8, i8, i8, i64, i32, ptr, ptr, ptr, ptr, ptr, ptr, ptr, ptr, ptr, ptr, i32, i32, ptr, i8, %union.pthread_cond_t, %union.pthread_mutex_t, i64, ptr, i32, i32, i32, ptr, i64, ptr, ptr, i8, ptr, i16, ptr, ptr, ptr, ptr, ptr, ptr, i64, ptr, i64, ptr, i16, i8, i16, i32, ptr, i16, ptr, ptr, i16, ptr, ptr, ptr, i8 }
%struct.slurm_step_id_msg = type { i64, i32, i32, i32 }
%struct.priv_state = type { i32, i32, ptr, i32 }

@.str.102 = private unnamed_addr constant [20 x i8] c"drop_privileges: %m\00", align 1
@.str.103 = private unnamed_addr constant [25 x i8] c"container_g_join(%u): %m\00", align 1

; Function Attrs: nounwind uwtable
define internal i32 @_spank_user_child(ptr noundef %0) #0 {
  %2 = alloca ptr, align 8
  %3 = alloca ptr, align 8
  %4 = alloca %struct.priv_state, align 8
  %5 = alloca i32, align 4
  store ptr %0, ptr %2, align 8
  call void @llvm.lifetime.start.p0(i64 8, ptr %3) #12
  %6 = load ptr, ptr %2, align 8
  store ptr %6, ptr %3, align 8
  call void @llvm.lifetime.start.p0(i64 24, ptr %4) #12
  call void @llvm.lifetime.start.p0(i64 4, ptr %5) #12
  store i32 0, ptr %5, align 4
  %7 = load ptr, ptr %3, align 8
  %8 = getelementptr inbounds nuw %struct.stepd_step_rec_t, ptr %7, i32 0, i32 5
  %9 = load ptr, ptr %3, align 8
  %10 = getelementptr inbounds nuw %struct.stepd_step_rec_t, ptr %9, i32 0, i32 46
  %11 = load i32, ptr %10, align 8
  %12 = call i32 @container_g_join(ptr noundef %8, i32 noundef %11, i1 noundef zeroext false)
  %13 = icmp ne i32 %12, 0
  br i1 %13, label %14, label %20

14:                                               ; preds = %1
  %15 = load ptr, ptr %3, align 8
  %16 = getelementptr inbounds nuw %struct.stepd_step_rec_t, ptr %15, i32 0, i32 5
  %17 = getelementptr inbounds nuw %struct.slurm_step_id_msg, ptr %16, i32 0, i32 1
  %18 = load i32, ptr %17, align 8
  %19 = call i32 (ptr, ...) @error(ptr noundef @.str.103, i32 noundef %18)
  call void @_exit(i32 noundef -1) #14
  unreachable

20:                                               ; preds = %1
  %21 = load ptr, ptr %3, align 8
  %22 = call i32 @drop_privileges(ptr noundef %21, i1 noundef zeroext true, ptr noundef %4, i1 noundef zeroext true)
  %23 = icmp slt i32 %22, 0
  br i1 %23, label %24, label %26

24:                                               ; preds = %20
  %25 = call i32 (ptr, ...) @error(ptr noundef @.str.102)
  call void @_exit(i32 noundef -1) #14
  unreachable

26:                                               ; preds = %20
  %27 = load ptr, ptr %3, align 8
  %28 = call i32 @spank_user(ptr noundef %27)
  %29 = icmp slt i32 %28, 0
  br i1 %29, label %30, label %31

30:                                               ; preds = %26
  store i32 1, ptr %5, align 4
  br label %31

31:                                               ; preds = %30, %26
  %32 = getelementptr inbounds nuw %struct.priv_state, ptr %4, i32 0, i32 2
  call void @slurm_xfree(ptr noundef %32)
  call void @auth_setuid_unlock()
  %33 = load i32, ptr %5, align 4
  call void @_exit(i32 noundef %33) #14
  unreachable
}