; Function Attrs: noreturn nounwind uwtable
define internal noundef i32 @_spank_user_child(ptr noundef %0) #11 {
  %2 = alloca %struct.priv_state, align 8
  call void @llvm.lifetime.start.p0(i64 24, ptr nonnull %2) #17
  %3 = getelementptr inbounds nuw i8, ptr %0, i64 112
  %4 = getelementptr inbounds nuw i8, ptr %0, i64 376
  %5 = load i32, ptr %4, align 8
  %6 = tail call i32 @container_g_join(ptr noundef nonnull %3, i32 noundef %5, i1 noundef zeroext false) #17
  %.not = icmp eq i32 %6, 0
  br i1 %.not, label %11, label %7

7:                                                ; preds = %1
  %8 = getelementptr inbounds nuw i8, ptr %0, i64 120
  %9 = load i32, ptr %8, align 8
  %10 = tail call i32 (ptr, ...) @error(ptr noundef nonnull @.str.103, i32 noundef %9) #17
  tail call void @_exit(i32 noundef -1) #19
  unreachable

11:                                               ; preds = %1
  %12 = call i32 @drop_privileges(ptr noundef nonnull %0, i1 noundef zeroext true, ptr noundef nonnull %2, i1 noundef zeroext true) #17
  %13 = icmp slt i32 %12, 0
  br i1 %13, label %14, label %16

14:                                               ; preds = %11
  %15 = call i32 (ptr, ...) @error(ptr noundef nonnull @.str.102) #17
  call void @_exit(i32 noundef -1) #19
  unreachable

16:                                               ; preds = %11
  %17 = call i32 @spank_user(ptr noundef nonnull %0) #17
  %.lobit = lshr i32 %17, 31
  %18 = getelementptr inbounds nuw i8, ptr %2, i64 8
  call void @slurm_xfree(ptr noundef nonnull %18) #17
  call void @auth_setuid_unlock() #17
  call void @_exit(i32 noundef %.lobit) #19
  unreachable
}